(dp0
I0
(lp1
ccopy_reg
_reconstructor
p2
(c__main__
Stump
p3
c__builtin__
object
p4
Ntp5
Rp6
(dp7
S'pair'
p8
(I122
I54
tp9
sS'type'
p10
S'<'
p11
sS'weight'
p12
F0.6472088969560374
sbag2
(g3
g4
Ntp13
Rp14
(dp15
g8
(I116
I41
tp16
sg10
g11
sg12
F0.5839777931265224
sbag2
(g3
g4
Ntp17
Rp18
(dp19
g8
(I128
I25
tp20
sg10
g11
sg12
F0.47263987693381765
sbag2
(g3
g4
Ntp21
Rp22
(dp23
g8
(I83
I165
tp24
sg10
S'>'
p25
sg12
F0.4780328560633274
sbag2
(g3
g4
Ntp26
Rp27
(dp28
g8
(I147
I138
tp29
sg10
g11
sg12
F0.24901073867341825
sbag2
(g3
g4
Ntp30
Rp31
(dp32
g8
(I67
I146
tp33
sg10
g25
sg12
F0.4292533883577695
sbag2
(g3
g4
Ntp34
Rp35
(dp36
g8
(I163
I62
tp37
sg10
g11
sg12
F0.4544224765454995
sbag2
(g3
g4
Ntp38
Rp39
(dp40
g8
(I4
I129
tp41
sg10
g25
sg12
F0.3899632148087546
sbag2
(g3
g4
Ntp42
Rp43
(dp44
g8
(I102
I176
tp45
sg10
g25
sg12
F0.1467718702639299
sbag2
(g3
g4
Ntp46
Rp47
(dp48
g8
(I126
I151
tp49
sg10
g11
sg12
F0.09369298297365157
sbag2
(g3
g4
Ntp50
Rp51
(dp52
g8
(I64
I103
tp53
sg10
g25
sg12
F0.2729915693284337
sbag2
(g3
g4
Ntp54
Rp55
(dp56
g8
(I16
I120
tp57
sg10
g25
sg12
F0.2998993650457748
sbag2
(g3
g4
Ntp58
Rp59
(dp60
g8
(I51
I69
tp61
sg10
g11
sg12
F0.03866354277188474
sbag2
(g3
g4
Ntp62
Rp63
(dp64
g8
(I74
I146
tp65
sg10
g25
sg12
F0.31876603208792625
sbag2
(g3
g4
Ntp66
Rp67
(dp68
g8
(I109
I140
tp69
sg10
g25
sg12
F0.16991571246015777
sbasI90
(lp70
g2
(g3
g4
Ntp71
Rp72
(dp73
g8
g57
sg10
g11
sg12
F0.7818503064184406
sbag2
(g3
g4
Ntp74
Rp75
(dp76
g8
g61
sg10
g11
sg12
F0.7708568120942072
sbag2
(g3
g4
Ntp77
Rp78
(dp79
g8
g24
sg10
g11
sg12
F0.7489869007237842
sbag2
(g3
g4
Ntp80
Rp81
(dp82
g8
g29
sg10
g11
sg12
F0.6841902898588326
sbag2
(g3
g4
Ntp83
Rp84
(dp85
g8
g20
sg10
g11
sg12
F0.08205324384983423
sbag2
(g3
g4
Ntp86
Rp87
(dp88
g8
g69
sg10
g11
sg12
F0.5130828247356123
sbag2
(g3
g4
Ntp89
Rp90
(dp91
g8
g33
sg10
g25
sg12
F0.4228411271238518
sbag2
(g3
g4
Ntp92
Rp93
(dp94
g8
g9
sg10
g25
sg12
F0.1479127160854451
sbag2
(g3
g4
Ntp95
Rp96
(dp97
g8
g41
sg10
g25
sg12
F0.08130894999939724
sbag2
(g3
g4
Ntp98
Rp99
(dp100
g8
g53
sg10
g25
sg12
F0.33815014901454477
sbag2
(g3
g4
Ntp101
Rp102
(dp103
g8
g16
sg10
g25
sg12
F0.25647846204923275
sbag2
(g3
g4
Ntp104
Rp105
(dp106
g8
g49
sg10
g11
sg12
F0.1907404464078936
sbag2
(g3
g4
Ntp107
Rp108
(dp109
g8
g65
sg10
g25
sg12
F0.023505458972646325
sbag2
(g3
g4
Ntp110
Rp111
(dp112
g8
g37
sg10
g25
sg12
F0.12360836027996885
sbag2
(g3
g4
Ntp113
Rp114
(dp115
g8
g45
sg10
g11
sg12
F0.13431209306162598
sbasI180
(lp116
g2
(g3
g4
Ntp117
Rp118
(dp119
g8
g24
sg10
g11
sg12
F0.7726853799588265
sbag2
(g3
g4
Ntp120
Rp121
(dp122
g8
g41
sg10
g11
sg12
F0.5246596570506643
sbag2
(g3
g4
Ntp123
Rp124
(dp125
g8
g65
sg10
g11
sg12
F0.6216849158162412
sbag2
(g3
g4
Ntp126
Rp127
(dp128
g8
g9
sg10
g25
sg12
F0.5026120881292859
sbag2
(g3
g4
Ntp129
Rp130
(dp131
g8
g49
sg10
g25
sg12
F0.25191742259637206
sbag2
(g3
g4
Ntp132
Rp133
(dp134
g8
g45
sg10
g11
sg12
F0.31132929784537006
sbag2
(g3
g4
Ntp135
Rp136
(dp137
g8
g33
sg10
g11
sg12
F0.5049312795162271
sbag2
(g3
g4
Ntp138
Rp139
(dp140
g8
g16
sg10
g25
sg12
F0.3746513715741295
sbag2
(g3
g4
Ntp141
Rp142
(dp143
g8
g69
sg10
g11
sg12
F0.3257880797488686
sbag2
(g3
g4
Ntp144
Rp145
(dp146
g8
g20
sg10
g25
sg12
F0.32111488065772475
sbag2
(g3
g4
Ntp147
Rp148
(dp149
g8
g37
sg10
g25
sg12
F0.386879205669738
sbag2
(g3
g4
Ntp150
Rp151
(dp152
g8
g29
sg10
g25
sg12
F0.16859591528307633
sbag2
(g3
g4
Ntp153
Rp154
(dp155
g8
g61
sg10
g11
sg12
F0.00504963504952163
sbag2
(g3
g4
Ntp156
Rp157
(dp158
g8
g53
sg10
g11
sg12
F0.20953120966896388
sbag2
(g3
g4
Ntp159
Rp160
(dp161
g8
g57
sg10
g11
sg12
F0.2406986827646186
sbasI270
(lp162
g2
(g3
g4
Ntp163
Rp164
(dp165
g8
g61
sg10
g25
sg12
F1.0024860791331203
sbag2
(g3
g4
Ntp166
Rp167
(dp168
g8
g49
sg10
g25
sg12
F0.765996502628844
sbag2
(g3
g4
Ntp169
Rp170
(dp171
g8
g29
sg10
g25
sg12
F0.8825671551920812
sbag2
(g3
g4
Ntp172
Rp173
(dp174
g8
g45
sg10
g25
sg12
F0.7174456433721567
sbag2
(g3
g4
Ntp175
Rp176
(dp177
g8
g24
sg10
g25
sg12
F0.4998296683234585
sbag2
(g3
g4
Ntp178
Rp179
(dp180
g8
g33
sg10
g11
sg12
F0.5876754094896687
sbag2
(g3
g4
Ntp181
Rp182
(dp183
g8
g9
sg10
g11
sg12
F0.3926160676714458
sbag2
(g3
g4
Ntp184
Rp185
(dp186
g8
g41
sg10
g11
sg12
F0.2566200522785731
sbag2
(g3
g4
Ntp187
Rp188
(dp189
g8
g57
sg10
g25
sg12
F0.22948435245296375
sbag2
(g3
g4
Ntp190
Rp191
(dp192
g8
g53
sg10
g11
sg12
F0.3357606394218219
sbag2
(g3
g4
Ntp193
Rp194
(dp195
g8
g65
sg10
g25
sg12
F0.08642236665154447
sbag2
(g3
g4
Ntp196
Rp197
(dp198
g8
g69
sg10
g25
sg12
F0.17812856809879235
sbag2
(g3
g4
Ntp199
Rp200
(dp201
g8
g20
sg10
g25
sg12
F0.006285920475951683
sbag2
(g3
g4
Ntp202
Rp203
(dp204
g8
g16
sg10
g11
sg12
F0.009532654474773968
sbag2
(g3
g4
Ntp205
Rp206
(dp207
g8
g37
sg10
g11
sg12
F0.10347262077247392
sbas.