(dp0
I0
(lp1
ccopy_reg
_reconstructor
p2
(cadaboost
Stump
p3
c__builtin__
object
p4
Ntp5
Rp6
(dp7
S'pair'
p8
(I116
I12
tp9
sS'type'
p10
S'<'
p11
sS'weight'
p12
F1.045794308762812
sbag2
(g3
g4
Ntp13
Rp14
(dp15
g8
(I149
I63
tp16
sg10
g11
sg12
F0.8275768482763525
sbag2
(g3
g4
Ntp17
Rp18
(dp19
g8
(I145
I186
tp20
sg10
S'>'
p21
sg12
F0.3162746170051182
sbag2
(g3
g4
Ntp22
Rp23
(dp24
g8
(I95
I126
tp25
sg10
g21
sg12
F0.329802528400396
sbag2
(g3
g4
Ntp26
Rp27
(dp28
g8
(I84
I113
tp29
sg10
g21
sg12
F0.537524026667755
sbag2
(g3
g4
Ntp30
Rp31
(dp32
g8
(I156
I10
tp33
sg10
g11
sg12
F0.41030115826635855
sbag2
(g3
g4
Ntp34
Rp35
(dp36
g8
(I90
I76
tp37
sg10
g21
sg12
F0.22325480868540312
sbag2
(g3
g4
Ntp38
Rp39
(dp40
g8
(I142
I59
tp41
sg10
g11
sg12
F0.413938721586059
sbag2
(g3
g4
Ntp42
Rp43
(dp44
g8
(I159
I182
tp45
sg10
g11
sg12
F0.12892108262238117
sbag2
(g3
g4
Ntp46
Rp47
(dp48
g8
(I89
I137
tp49
sg10
g21
sg12
F0.35555953860366585
sbasI90
(lp50
g2
(g3
g4
Ntp51
Rp52
(dp53
g8
g37
sg10
g21
sg12
F0.6831115029161251
sbag2
(g3
g4
Ntp54
Rp55
(dp56
g8
g25
sg10
g21
sg12
F0.6770649393809584
sbag2
(g3
g4
Ntp57
Rp58
(dp59
g8
g9
sg10
g21
sg12
F0.4411510645512319
sbag2
(g3
g4
Ntp60
Rp61
(dp62
g8
g16
sg10
g11
sg12
F0.5503691565031156
sbag2
(g3
g4
Ntp63
Rp64
(dp65
g8
g41
sg10
g21
sg12
F0.3298244844771493
sbag2
(g3
g4
Ntp66
Rp67
(dp68
g8
g20
sg10
g11
sg12
F0.395539468054958
sbag2
(g3
g4
Ntp69
Rp70
(dp71
g8
g45
sg10
g21
sg12
F0.18238360139397744
sbag2
(g3
g4
Ntp72
Rp73
(dp74
g8
g33
sg10
g11
sg12
F0.04928209426927686
sbag2
(g3
g4
Ntp75
Rp76
(dp77
g8
g29
sg10
g11
sg12
F0.24347536188221364
sbag2
(g3
g4
Ntp78
Rp79
(dp80
g8
g49
sg10
g21
sg12
F0.02654345344269926
sbasI180
(lp81
g2
(g3
g4
Ntp82
Rp83
(dp84
g8
g33
sg10
g21
sg12
F0.7718068825493467
sbag2
(g3
g4
Ntp85
Rp86
(dp87
g8
g20
sg10
g11
sg12
F0.6887631728848835
sbag2
(g3
g4
Ntp88
Rp89
(dp90
g8
g25
sg10
g11
sg12
F0.5767630276267471
sbag2
(g3
g4
Ntp91
Rp92
(dp93
g8
g41
sg10
g21
sg12
F0.3594409337023711
sbag2
(g3
g4
Ntp94
Rp95
(dp96
g8
g16
sg10
g21
sg12
F0.4348915716594516
sbag2
(g3
g4
Ntp97
Rp98
(dp99
g8
g45
sg10
g21
sg12
F0.39319272960707913
sbag2
(g3
g4
Ntp100
Rp101
(dp102
g8
g49
sg10
g11
sg12
F0.4868531199615374
sbag2
(g3
g4
Ntp103
Rp104
(dp105
g8
g9
sg10
g21
sg12
F0.28808187380357664
sbag2
(g3
g4
Ntp106
Rp107
(dp108
g8
g37
sg10
g21
sg12
F0.0776374113942659
sbag2
(g3
g4
Ntp109
Rp110
(dp111
g8
g29
sg10
g11
sg12
F0.10506687664000638
sbasI270
(lp112
g2
(g3
g4
Ntp113
Rp114
(dp115
g8
g25
sg10
g11
sg12
F0.8590157742236869
sbag2
(g3
g4
Ntp116
Rp117
(dp118
g8
g29
sg10
g21
sg12
F0.5582191270553322
sbag2
(g3
g4
Ntp119
Rp120
(dp121
g8
g20
sg10
g21
sg12
F0.494465632570849
sbag2
(g3
g4
Ntp122
Rp123
(dp124
g8
g16
sg10
g21
sg12
F0.33174406612009916
sbag2
(g3
g4
Ntp125
Rp126
(dp127
g8
g9
sg10
g11
sg12
F0.3588688694043783
sbag2
(g3
g4
Ntp128
Rp129
(dp130
g8
g33
sg10
g21
sg12
F0.12578382037070987
sbag2
(g3
g4
Ntp131
Rp132
(dp133
g8
g37
sg10
g11
sg12
F0.3189088505885686
sbag2
(g3
g4
Ntp134
Rp135
(dp136
g8
g49
sg10
g21
sg12
F0.034943000016061584
sbag2
(g3
g4
Ntp137
Rp138
(dp139
g8
g45
sg10
g21
sg12
F0.01668788464523558
sbag2
(g3
g4
Ntp140
Rp141
(dp142
g8
g41
sg10
g11
sg12
F0.19132062685044668
sbas.