(dp0
I0
(lp1
ccopy_reg
_reconstructor
p2
(cadaboost
Stump
p3
c__builtin__
object
p4
Ntp5
Rp6
(dp7
S'pair'
p8
(I42
I135
tp9
sS'type'
p10
S'>'
p11
sS'weight'
p12
F0.7647907329905936
sbag2
(g3
g4
Ntp13
Rp14
(dp15
g8
(I82
I34
tp16
sg10
S'<'
p17
sg12
F0.3466078042181665
sbag2
(g3
g4
Ntp18
Rp19
(dp20
g8
(I161
I190
tp21
sg10
g17
sg12
F0.31455436720508156
sbag2
(g3
g4
Ntp22
Rp23
(dp24
g8
(I144
I160
tp25
sg10
g17
sg12
F0.1197595602231763
sbag2
(g3
g4
Ntp26
Rp27
(dp28
g8
(I101
I179
tp29
sg10
g11
sg12
F0.10151823719385884
sbasI90
(lp30
g2
(g3
g4
Ntp31
Rp32
(dp33
g8
g25
sg10
g11
sg12
F0.8881215739446555
sbag2
(g3
g4
Ntp34
Rp35
(dp36
g8
g9
sg10
g11
sg12
F0.29168596331357327
sbag2
(g3
g4
Ntp37
Rp38
(dp39
g8
g29
sg10
g17
sg12
F0.15906191187160287
sbag2
(g3
g4
Ntp40
Rp41
(dp42
g8
g21
sg10
g17
sg12
F0.1867041229449576
sbag2
(g3
g4
Ntp43
Rp44
(dp45
g8
g16
sg10
g17
sg12
F0.054955160460368774
sbasI180
(lp46
g2
(g3
g4
Ntp47
Rp48
(dp49
g8
g9
sg10
g17
sg12
F0.7455806061738317
sbag2
(g3
g4
Ntp50
Rp51
(dp52
g8
g29
sg10
g17
sg12
F0.515633517981719
sbag2
(g3
g4
Ntp53
Rp54
(dp55
g8
g25
sg10
g11
sg12
F0.20238320248149613
sbag2
(g3
g4
Ntp56
Rp57
(dp58
g8
g21
sg10
g11
sg12
F0.1291628099374487
sbag2
(g3
g4
Ntp59
Rp60
(dp61
g8
g16
sg10
g17
sg12
F0.035817203518347523
sbasI270
(lp62
g2
(g3
g4
Ntp63
Rp64
(dp65
g8
g29
sg10
g11
sg12
F0.3727234708923225
sbag2
(g3
g4
Ntp66
Rp67
(dp68
g8
g9
sg10
g17
sg12
F0.340454555340888
sbag2
(g3
g4
Ntp69
Rp70
(dp71
g8
g21
sg10
g17
sg12
F0.2543974767309742
sbag2
(g3
g4
Ntp72
Rp73
(dp74
g8
g25
sg10
g17
sg12
F0.19101371868035177
sbag2
(g3
g4
Ntp75
Rp76
(dp77
g8
g16
sg10
g17
sg12
F0.0429341675642386
sbas.