(dp0
I0
(lp1
ccopy_reg
_reconstructor
p2
(c__main__
Stump
p3
c__builtin__
object
p4
Ntp5
Rp6
(dp7
S'pair'
p8
(I100
I18
tp9
sS'type'
p10
S'<'
p11
sS'weight'
p12
F0.9100987814672653
sbag2
(g3
g4
Ntp13
Rp14
(dp15
g8
(I6
I189
tp16
sg10
S'>'
p17
sg12
F0.9103961003708184
sbag2
(g3
g4
Ntp18
Rp19
(dp20
g8
(I24
I122
tp21
sg10
g17
sg12
F0.8567426465126441
sbag2
(g3
g4
Ntp22
Rp23
(dp24
g8
(I164
I51
tp25
sg10
g11
sg12
F0.6356920825723256
sbag2
(g3
g4
Ntp26
Rp27
(dp28
g8
(I45
I127
tp29
sg10
g17
sg12
F0.7829046134269999
sbag2
(g3
g4
Ntp30
Rp31
(dp32
g8
(I79
I147
tp33
sg10
g17
sg12
F0.39806052277569737
sbag2
(g3
g4
Ntp34
Rp35
(dp36
g8
(I11
I52
tp37
sg10
g17
sg12
F0.5082465782478146
sbag2
(g3
g4
Ntp38
Rp39
(dp40
g8
(I173
I49
tp41
sg10
g11
sg12
F0.4496218316072757
sbag2
(g3
g4
Ntp42
Rp43
(dp44
g8
(I148
I54
tp45
sg10
g11
sg12
F0.5632910241298589
sbag2
(g3
g4
Ntp46
Rp47
(dp48
g8
(I173
I147
tp49
sg10
g17
sg12
F0.25963668086883557
sbag2
(g3
g4
Ntp50
Rp51
(dp52
g8
(I113
I46
tp53
sg10
g11
sg12
F0.4013990028167447
sbag2
(g3
g4
Ntp54
Rp55
(dp56
g8
(I65
I143
tp57
sg10
g17
sg12
F0.4600858385355436
sbag2
(g3
g4
Ntp58
Rp59
(dp60
g8
(I191
I99
tp61
sg10
g11
sg12
F0.19957538661344187
sbag2
(g3
g4
Ntp62
Rp63
(dp64
g8
(I44
I126
tp65
sg10
g17
sg12
F0.5200949106229547
sbag2
(g3
g4
Ntp66
Rp67
(dp68
g8
(I190
I35
tp69
sg10
g11
sg12
F0.44057259138598115
sbag2
(g3
g4
Ntp70
Rp71
(dp72
g8
(I151
I128
tp73
sg10
g17
sg12
F0.0763048436910612
sbag2
(g3
g4
Ntp74
Rp75
(dp76
g8
(I102
I129
tp77
sg10
g17
sg12
F0.2879715544120945
sbag2
(g3
g4
Ntp78
Rp79
(dp80
g8
(I111
I102
tp81
sg10
g17
sg12
F0.05094763666004108
sbag2
(g3
g4
Ntp82
Rp83
(dp84
g8
(I55
I131
tp85
sg10
g17
sg12
F0.2989852182007543
sbag2
(g3
g4
Ntp86
Rp87
(dp88
g8
(I145
I96
tp89
sg10
g11
sg12
F0.23960764482421432
sbag2
(g3
g4
Ntp90
Rp91
(dp92
g8
(I164
I158
tp93
sg10
g11
sg12
F0.02901785053772178
sbag2
(g3
g4
Ntp94
Rp95
(dp96
g8
(I125
I61
tp97
sg10
g11
sg12
F0.38457339062838003
sbag2
(g3
g4
Ntp98
Rp99
(dp100
g8
(I166
I73
tp101
sg10
g11
sg12
F0.18239089018699045
sbag2
(g3
g4
Ntp102
Rp103
(dp104
g8
(I120
I167
tp105
sg10
g17
sg12
F0.11542663470019698
sbag2
(g3
g4
Ntp106
Rp107
(dp108
g8
(I58
I131
tp109
sg10
g17
sg12
F0.3337045398418193
sbasI90
(lp110
g2
(g3
g4
Ntp111
Rp112
(dp113
g8
g89
sg10
g11
sg12
F0.9007972497501494
sbag2
(g3
g4
Ntp114
Rp115
(dp116
g8
g16
sg10
g11
sg12
F0.7917181340173729
sbag2
(g3
g4
Ntp117
Rp118
(dp119
g8
g21
sg10
g17
sg12
F0.853667094046315
sbag2
(g3
g4
Ntp120
Rp121
(dp122
g8
g105
sg10
g17
sg12
F0.7838313166011966
sbag2
(g3
g4
Ntp123
Rp124
(dp125
g8
g25
sg10
g17
sg12
F0.5596351131653916
sbag2
(g3
g4
Ntp126
Rp127
(dp128
g8
g29
sg10
g17
sg12
F0.7894865016881496
sbag2
(g3
g4
Ntp129
Rp130
(dp131
g8
g69
sg10
g17
sg12
F0.3949299258302692
sbag2
(g3
g4
Ntp132
Rp133
(dp134
g8
g45
sg10
g17
sg12
F0.23258440650250378
sbag2
(g3
g4
Ntp135
Rp136
(dp137
g8
g41
sg10
g11
sg12
F0.2074390538014726
sbag2
(g3
g4
Ntp138
Rp139
(dp140
g8
g93
sg10
g17
sg12
F0.5149013937482232
sbag2
(g3
g4
Ntp141
Rp142
(dp143
g8
g9
sg10
g11
sg12
F0.5085132387556128
sbag2
(g3
g4
Ntp144
Rp145
(dp146
g8
g57
sg10
g11
sg12
F0.25605258602643927
sbag2
(g3
g4
Ntp147
Rp148
(dp149
g8
g33
sg10
g17
sg12
F0.2908451117279782
sbag2
(g3
g4
Ntp150
Rp151
(dp152
g8
g61
sg10
g17
sg12
F0.5643501210036697
sbag2
(g3
g4
Ntp153
Rp154
(dp155
g8
g53
sg10
g17
sg12
F0.03501706449283656
sbag2
(g3
g4
Ntp156
Rp157
(dp158
g8
g85
sg10
g11
sg12
F0.12184863245101664
sbag2
(g3
g4
Ntp159
Rp160
(dp161
g8
g65
sg10
g17
sg12
F0.5540042896122964
sbag2
(g3
g4
Ntp162
Rp163
(dp164
g8
g109
sg10
g11
sg12
F0.023050884182357505
sbag2
(g3
g4
Ntp165
Rp166
(dp167
g8
g81
sg10
g17
sg12
F0.472289864674641
sbag2
(g3
g4
Ntp168
Rp169
(dp170
g8
g73
sg10
g17
sg12
F0.13456824807778092
sbag2
(g3
g4
Ntp171
Rp172
(dp173
g8
g101
sg10
g17
sg12
F0.33237700753234073
sbag2
(g3
g4
Ntp174
Rp175
(dp176
g8
g49
sg10
g17
sg12
F0.31108958222053984
sbag2
(g3
g4
Ntp177
Rp178
(dp179
g8
g77
sg10
g11
sg12
F0.14021617401937417
sbag2
(g3
g4
Ntp180
Rp181
(dp182
g8
g97
sg10
g11
sg12
F0.2719996978474444
sbag2
(g3
g4
Ntp183
Rp184
(dp185
g8
g37
sg10
g17
sg12
F0.08673797429489664
sbasI180
(lp186
g2
(g3
g4
Ntp187
Rp188
(dp189
g8
g16
sg10
g11
sg12
F0.9103961003708184
sbag2
(g3
g4
Ntp190
Rp191
(dp192
g8
g65
sg10
g11
sg12
F0.6915995213668819
sbag2
(g3
g4
Ntp193
Rp194
(dp195
g8
g33
sg10
g11
sg12
F0.7104933828050153
sbag2
(g3
g4
Ntp196
Rp197
(dp198
g8
g25
sg10
g17
sg12
F0.5586589515426796
sbag2
(g3
g4
Ntp199
Rp200
(dp201
g8
g21
sg10
g11
sg12
F0.5710368592297606
sbag2
(g3
g4
Ntp202
Rp203
(dp204
g8
g77
sg10
g11
sg12
F0.43951699016005047
sbag2
(g3
g4
Ntp205
Rp206
(dp207
g8
g57
sg10
g11
sg12
F0.5389024376291499
sbag2
(g3
g4
Ntp208
Rp209
(dp210
g8
g41
sg10
g17
sg12
F0.5479921833629693
sbag2
(g3
g4
Ntp211
Rp212
(dp213
g8
g49
sg10
g11
sg12
F0.263294686985696
sbag2
(g3
g4
Ntp214
Rp215
(dp216
g8
g45
sg10
g17
sg12
F0.4463200869564659
sbag2
(g3
g4
Ntp217
Rp218
(dp219
g8
g85
sg10
g11
sg12
F0.5502466651052367
sbag2
(g3
g4
Ntp220
Rp221
(dp222
g8
g37
sg10
g11
sg12
F0.06565448352180268
sbag2
(g3
g4
Ntp223
Rp224
(dp225
g8
g69
sg10
g17
sg12
F0.4691892100058015
sbag2
(g3
g4
Ntp226
Rp227
(dp228
g8
g29
sg10
g11
sg12
F0.4637838475181013
sbag2
(g3
g4
Ntp229
Rp230
(dp231
g8
g81
sg10
g17
sg12
F0.09757794596953188
sbag2
(g3
g4
Ntp232
Rp233
(dp234
g8
g97
sg10
g17
sg12
F0.43276817167386394
sbag2
(g3
g4
Ntp235
Rp236
(dp237
g8
g61
sg10
g17
sg12
F0.23273523679975616
sbag2
(g3
g4
Ntp238
Rp239
(dp240
g8
g93
sg10
g11
sg12
F0.058121102469965616
sbag2
(g3
g4
Ntp241
Rp242
(dp243
g8
g89
sg10
g17
sg12
F0.3291759287095285
sbag2
(g3
g4
Ntp244
Rp245
(dp246
g8
g73
sg10
g11
sg12
F0.01525755434888462
sbag2
(g3
g4
Ntp247
Rp248
(dp249
g8
g101
sg10
g17
sg12
F0.302325718583669
sbag2
(g3
g4
Ntp250
Rp251
(dp252
g8
g109
sg10
g11
sg12
F0.5408097598438979
sbag2
(g3
g4
Ntp253
Rp254
(dp255
g8
g9
sg10
g17
sg12
F0.3352133720631775
sbag2
(g3
g4
Ntp256
Rp257
(dp258
g8
g53
sg10
g17
sg12
F0.17702572321860094
sbag2
(g3
g4
Ntp259
Rp260
(dp261
g8
g105
sg10
g11
sg12
F0.272730070766733
sbasI270
(lp262
g2
(g3
g4
Ntp263
Rp264
(dp265
g8
g61
sg10
g11
sg12
F1.0507632740226593
sbag2
(g3
g4
Ntp266
Rp267
(dp268
g8
g65
sg10
g11
sg12
F0.95712337875165
sbag2
(g3
g4
Ntp269
Rp270
(dp271
g8
g25
sg10
g11
sg12
F1.0361223813949105
sbag2
(g3
g4
Ntp272
Rp273
(dp274
g8
g33
sg10
g11
sg12
F0.7547860481880042
sbag2
(g3
g4
Ntp275
Rp276
(dp277
g8
g16
sg10
g17
sg12
F0.7917181340173729
sbag2
(g3
g4
Ntp278
Rp279
(dp280
g8
g21
sg10
g11
sg12
F0.7264246423556363
sbag2
(g3
g4
Ntp281
Rp282
(dp283
g8
g45
sg10
g11
sg12
F0.5817551285599054
sbag2
(g3
g4
Ntp284
Rp285
(dp286
g8
g81
sg10
g11
sg12
F0.8293688855816873
sbag2
(g3
g4
Ntp287
Rp288
(dp289
g8
g49
sg10
g11
sg12
F0.7432999058539971
sbag2
(g3
g4
Ntp290
Rp291
(dp292
g8
g41
sg10
g17
sg12
F0.16573785127085025
sbag2
(g3
g4
Ntp293
Rp294
(dp295
g8
g29
sg10
g11
sg12
F0.45011598846226863
sbag2
(g3
g4
Ntp296
Rp297
(dp298
g8
g77
sg10
g17
sg12
F0.401678795974434
sbag2
(g3
g4
Ntp299
Rp300
(dp301
g8
g97
sg10
g17
sg12
F0.58888713600567
sbag2
(g3
g4
Ntp302
Rp303
(dp304
g8
g53
sg10
g11
sg12
F0.09251616907064067
sbag2
(g3
g4
Ntp305
Rp306
(dp307
g8
g57
sg10
g17
sg12
F0.04305227338469637
sbag2
(g3
g4
Ntp308
Rp309
(dp310
g8
g105
sg10
g11
sg12
F0.18014644988352918
sbag2
(g3
g4
Ntp311
Rp312
(dp313
g8
g101
sg10
g11
sg12
F0.3366757647559556
sbag2
(g3
g4
Ntp314
Rp315
(dp316
g8
g89
sg10
g17
sg12
F0.4225819164952677
sbag2
(g3
g4
Ntp317
Rp318
(dp319
g8
g73
sg10
g11
sg12
F0.243668497676925
sbag2
(g3
g4
Ntp320
Rp321
(dp322
g8
g85
sg10
g17
sg12
F0.02467011280507889
sbag2
(g3
g4
Ntp323
Rp324
(dp325
g8
g9
sg10
g17
sg12
F0.41908433234154574
sbag2
(g3
g4
Ntp326
Rp327
(dp328
g8
g69
sg10
g11
sg12
F0.13301264061891577
sbag2
(g3
g4
Ntp329
Rp330
(dp331
g8
g109
sg10
g11
sg12
F0.14716223439887305
sbag2
(g3
g4
Ntp332
Rp333
(dp334
g8
g93
sg10
g11
sg12
F0.1326169370912201
sbag2
(g3
g4
Ntp335
Rp336
(dp337
g8
g37
sg10
g11
sg12
F0.14516621391760687
sbas.